target datalayout = "e-m:e-p270:32:32-p271:32:32-p272:64:64-i64:64-i128:128-f80:128-n8:16:32:64-S128"
target triple = "x86_64-pc-linux-gnu"

%struct.nstime_t = type { i64, i32 }
%struct._packet_info = type { ptr, ptr, i32, i32, %struct.nstime_t, %struct.nstime_t, %struct.nstime_t, i8, ptr, ptr, ptr, ptr, %struct._address, %struct._address, %struct._address, %struct._address, %struct._address, %struct._address, i32, ptr, i8, [3 x i8], %struct.anon.0, i32, i32, i32, i32, ptr, i8, ptr, ptr, i16, i16, i32, i32, i16, i32, i32, ptr, ptr, ptr, i8, i8, i16, i16, i16, i32, i16, i16, ptr, ptr, ptr, ptr, ptr, i32, i32 }
%struct._address = type { i32, i32, ptr, ptr }
%struct.anon.0 = type { i8, [3 x i8] }

; Function Attrs: null_pointer_is_valid sspstrong uwtable
define hidden void @cb_wstr_postprocess(ptr noundef %0, ptr noundef %1, ptr noundef %2, ptr noundef %3, ptr noundef %4, i32 noundef %5, i32 noundef %6, ptr noundef %7) #0 {
  %9 = alloca ptr, align 8
  %10 = alloca ptr, align 8
  %11 = alloca ptr, align 8
  %12 = alloca ptr, align 8
  %13 = alloca ptr, align 8
  %14 = alloca i32, align 4
  %15 = alloca i32, align 4
  %16 = alloca ptr, align 8
  %17 = alloca i32, align 4
  %18 = alloca ptr, align 8
  %19 = alloca i32, align 4
  store ptr %0, ptr %9, align 8
  store ptr %1, ptr %10, align 8
  store ptr %2, ptr %11, align 8
  store ptr %3, ptr %12, align 8
  store ptr %4, ptr %13, align 8
  store i32 %5, ptr %14, align 4
  store i32 %6, ptr %15, align 4
  store ptr %7, ptr %16, align 8
  call void @llvm.lifetime.start.p0(i64 4, ptr %17) #13
  %20 = load ptr, ptr %16, align 8
  %21 = ptrtoint ptr %20 to i64
  %22 = trunc i64 %21 to i32
  store i32 %22, ptr %17, align 4
  call void @llvm.lifetime.start.p0(i64 8, ptr %18) #13
  %23 = load i32, ptr %14, align 4
  %24 = srem i32 %23, 4
  %25 = icmp ne i32 %24, 0
  br i1 %25, label %26, label %32

26:                                               ; preds = %8
  %27 = load i32, ptr %14, align 4
  %28 = srem i32 %27, 4
  %29 = sub i32 4, %28
  %30 = load i32, ptr %14, align 4
  %31 = add i32 %30, %29
  store i32 %31, ptr %14, align 4
  br label %32

32:                                               ; preds = %26, %8
  %33 = load i32, ptr %15, align 4
  %34 = load i32, ptr %14, align 4
  %35 = sub i32 %33, %34
  %36 = icmp sle i32 %35, 12
  br i1 %36, label %37, label %38

37:                                               ; preds = %32
  store i32 1, ptr %19, align 4
  br label %55

38:                                               ; preds = %32
  %39 = load ptr, ptr %9, align 8
  %40 = getelementptr inbounds nuw %struct._packet_info, ptr %39, i32 0, i32 51
  %41 = load ptr, ptr %40, align 8
  %42 = load ptr, ptr %13, align 8
  %43 = load i32, ptr %14, align 4
  %44 = add i32 %43, 12
  %45 = load i32, ptr %15, align 4
  %46 = load i32, ptr %14, align 4
  %47 = sub i32 %45, %46
  %48 = sub i32 %47, 12
  %49 = call ptr @tvb_get_string_enc(ptr noundef %41, ptr noundef %42, i32 noundef %44, i32 noundef %48, i32 noundef -2147483644)
  store ptr %49, ptr %18, align 8
  %50 = load ptr, ptr %9, align 8
  %51 = load ptr, ptr %11, align 8
  %52 = load ptr, ptr %12, align 8
  %53 = load i32, ptr %17, align 4
  %54 = load ptr, ptr %18, align 8
  call void @cb_str_postprocess_options(ptr noundef %50, ptr noundef %51, ptr noundef %52, i32 noundef %53, ptr noundef %54)
  store i32 0, ptr %19, align 4
  br label %55

55:                                               ; preds = %38, %37
  call void @llvm.lifetime.end.p0(i64 8, ptr %18) #13
  call void @llvm.lifetime.end.p0(i64 4, ptr %17) #13
  %56 = load i32, ptr %19, align 4
  switch i32 %56, label %58 [
    i32 0, label %57
    i32 1, label %57
  ]

57:                                               ; preds = %55, %55
  ret void

58:                                               ; preds = %55
  unreachable
}