; Function Attrs: null_pointer_is_valid sspstrong uwtable
define hidden void @cb_wstr_postprocess(ptr noundef readonly captures(none) %0, ptr readnone captures(none) %1, ptr noundef %2, ptr noundef readonly captures(none) %3, ptr noundef %4, i32 noundef %5, i32 noundef %6, ptr noundef %7) #0 {
  %9 = srem i32 %5, 4
  %.not = icmp eq i32 %9, 0
  %reass.sub = add i32 %5, 4
  %10 = sub i32 %reass.sub, %9
  %.0 = select i1 %.not, i32 %5, i32 %10
  %11 = sub i32 %6, %.0
  %12 = icmp slt i32 %11, 13
  br i1 %12, label %21, label %13

13:                                               ; preds = %8
  %14 = ptrtoint ptr %7 to i64
  %15 = trunc i64 %14 to i32
  %16 = getelementptr inbounds nuw i8, ptr %0, i64 408
  %17 = load ptr, ptr %16, align 8
  %18 = add i32 %.0, 12
  %19 = add nsw i32 %11, -12
  %20 = tail call ptr @tvb_get_string_enc(ptr noundef %17, ptr noundef %4, i32 noundef %18, i32 noundef %19, i32 noundef -2147483644)
  tail call fastcc void @cb_str_postprocess_options(ptr noundef %0, ptr noundef %2, ptr noundef %3, i32 noundef %15, ptr noundef %20)
  br label %21

21:                                               ; preds = %8, %13
  ret void
}